; Function Attrs: nounwind uwtable
define internal i32 @ch_on_crypto_send(ptr noundef %0, i64 noundef %1, ptr noundef %2, ptr noundef readonly captures(none) %3) #0 {
  %5 = getelementptr inbounds nuw i8, ptr %3, i64 1568
  %6 = load i64, ptr %5, align 8
  %7 = trunc i64 %6 to i32
  %8 = lshr i32 %7, 14
  %9 = and i32 %8, 7
  %switch.selectcmp.i = icmp eq i32 %9, 2
  %switch.select.i = select i1 %switch.selectcmp.i, i64 1, i64 2
  %switch.selectcmp2.i = icmp eq i32 %9, 0
  %switch.select3.i = select i1 %switch.selectcmp2.i, i64 0, i64 %switch.select.i
  %10 = getelementptr inbounds nuw i8, ptr %3, i64 1096
  %11 = getelementptr inbounds nuw [3 x ptr], ptr %10, i64 0, i64 %switch.select3.i
  %12 = load ptr, ptr %11, align 8, !tbaa !106
  %.not = icmp eq ptr %12, null
  br i1 %.not, label %15, label %13, !prof !237

13:                                               ; preds = %4
  %14 = tail call i32 @ossl_quic_sstream_append(ptr noundef nonnull %12, ptr noundef %0, i64 noundef %1, ptr noundef %2) #15
  br label %15

15:                                               ; preds = %4, %13
  %.0 = phi i32 [ %14, %13 ], [ 0, %4 ]
  ret i32 %.0
}